target datalayout = "e-m:e-p270:32:32-p271:32:32-p272:64:64-i64:64-i128:128-f80:128-n8:16:32:64-S128"
target triple = "x86_64-unknown-linux-gnu"

%"struct.proxygen::HPACK::Instruction" = type { i8, i8 }
%"struct.folly::IOBufQueue::Options" = type { i8 }
%"class.proxygen::QPACKEncoder" = type { %"class.proxygen::HPACKEncoderBase.base", [7 x i8], %"class.proxygen::QPACKContext.base", [4 x i8], %"class.proxygen::HPACKEncodeBuffer", %"class.std::unordered_map", %"struct.proxygen::QPACKEncoder::OutstandingBlock", i32, i32, i32, i32, i64, %"class.folly::IOBufQueue", i32, i32 }
%"class.proxygen::HPACKEncoderBase.base" = type <{ ptr, %"class.proxygen::HPACKEncodeBuffer", i8 }>
%"class.proxygen::QPACKContext.base" = type <{ %"class.proxygen::QPACKHeaderTable", i32, i32, i32 }>
%"class.proxygen::QPACKHeaderTable" = type { %"class.proxygen::HeaderTable", i32, i32, i32, i32, %"class.std::unique_ptr.7" }
%"class.proxygen::HeaderTable" = type { ptr, i32, i32, %"class.std::vector", i32, i32, i32, i8, %"class.folly::F14FastMap" }
%"class.std::vector" = type { %"struct.std::_Vector_base" }
%"struct.std::_Vector_base" = type { %"struct.std::_Vector_base<proxygen::HPACKHeader, std::allocator<proxygen::HPACKHeader>>::_Vector_impl" }
%"struct.std::_Vector_base<proxygen::HPACKHeader, std::allocator<proxygen::HPACKHeader>>::_Vector_impl" = type { %"struct.std::_Vector_base<proxygen::HPACKHeader, std::allocator<proxygen::HPACKHeader>>::_Vector_impl_data" }
%"struct.std::_Vector_base<proxygen::HPACKHeader, std::allocator<proxygen::HPACKHeader>>::_Vector_impl_data" = type { ptr, ptr, ptr }
%"class.folly::F14FastMap" = type { %"class.folly::f14::detail::F14VectorMapImpl" }
%"class.folly::f14::detail::F14VectorMapImpl" = type { %"class.folly::f14::detail::F14BasicMap" }
%"class.folly::f14::detail::F14BasicMap" = type { %"class.folly::f14::detail::F14Table" }
%"class.folly::f14::detail::F14Table" = type { %"class.folly::f14::detail::VectorContainerPolicy", ptr, %"struct.folly::f14::detail::SizeAndChunkShiftAndPackedBegin" }
%"class.folly::f14::detail::VectorContainerPolicy" = type { ptr }
%"struct.folly::f14::detail::SizeAndChunkShiftAndPackedBegin" = type { %"struct.folly::f14::detail::PackedSizeAndChunkShift" }
%"struct.folly::f14::detail::PackedSizeAndChunkShift" = type { i64 }
%"class.std::unique_ptr.7" = type { %"struct.std::__uniq_ptr_data.8" }
%"struct.std::__uniq_ptr_data.8" = type { %"class.std::__uniq_ptr_impl.9" }
%"class.std::__uniq_ptr_impl.9" = type { %"class.std::tuple.10" }
%"class.std::tuple.10" = type { %"struct.std::_Tuple_impl.11" }
%"struct.std::_Tuple_impl.11" = type { %"struct.std::_Head_base.14" }
%"struct.std::_Head_base.14" = type { ptr }
%"class.proxygen::HPACKEncodeBuffer" = type <{ %"class.folly::IOBufQueue", ptr, %"class.folly::io::QueueAppender", i32, i32, i32, [4 x i8] }>
%"class.folly::io::QueueAppender" = type { %"class.folly::IOBufQueue::WritableRangeCache", i64 }
%"class.folly::IOBufQueue::WritableRangeCache" = type { %"struct.folly::IOBufQueue::WritableRangeCacheData", ptr }
%"struct.folly::IOBufQueue::WritableRangeCacheData" = type <{ %"struct.std::pair", i8, [7 x i8] }>
%"struct.std::pair" = type { ptr, ptr }
%"class.std::unordered_map" = type { %"class.std::_Hashtable" }
%"class.std::_Hashtable" = type { ptr, i64, %"struct.std::__detail::_Hash_node_base", i64, %"struct.std::__detail::_Prime_rehash_policy", ptr }
%"struct.std::__detail::_Hash_node_base" = type { ptr }
%"struct.std::__detail::_Prime_rehash_policy" = type { float, i64 }
%"struct.proxygen::QPACKEncoder::OutstandingBlock" = type <{ %"class.std::set", i8, [7 x i8] }>
%"class.std::set" = type { %"class.std::_Rb_tree" }
%"class.std::_Rb_tree" = type { %"struct.std::_Rb_tree<unsigned int, unsigned int, std::_Identity<unsigned int>, std::less<unsigned int>>::_Rb_tree_impl" }
%"struct.std::_Rb_tree<unsigned int, unsigned int, std::_Identity<unsigned int>, std::less<unsigned int>>::_Rb_tree_impl" = type { %"struct.std::_Rb_tree_key_compare", %"struct.std::_Rb_tree_header" }
%"struct.std::_Rb_tree_key_compare" = type { %"struct.std::less" }
%"struct.std::less" = type { i8 }
%"struct.std::_Rb_tree_header" = type { %"struct.std::_Rb_tree_node_base", i64 }
%"struct.std::_Rb_tree_node_base" = type { i32, ptr, ptr, ptr }
%"class.folly::IOBufQueue" = type { %"struct.folly::IOBufQueue::Options", i64, %"class.std::unique_ptr", ptr, ptr, %"struct.folly::IOBufQueue::WritableRangeCacheData", ptr }
%"class.std::unique_ptr" = type { %"struct.std::__uniq_ptr_data" }
%"struct.std::__uniq_ptr_data" = type { %"class.std::__uniq_ptr_impl" }
%"class.std::__uniq_ptr_impl" = type { %"class.std::tuple" }
%"class.std::tuple" = type { %"struct.std::_Tuple_impl" }
%"struct.std::_Tuple_impl" = type { %"struct.std::_Head_base.1" }
%"struct.std::_Head_base.1" = type { ptr }
%"class.folly::Range" = type { ptr, ptr }

@_ZN8proxygen5HPACKL17Q_INSERT_NAME_REFE = internal constant %"struct.proxygen::HPACK::Instruction" { i8 -128, i8 6 }, align 1
@_ZN8proxygen5HPACKL20Q_INSERT_NO_NAME_REFE = internal constant %"struct.proxygen::HPACK::Instruction" { i8 64, i8 5 }, align 1

; Function Attrs: mustprogress uwtable
define void @_ZN8proxygen12QPACKEncoder13encodeInsertQERKNS_15HPACKHeaderNameEN5folly5RangeIPKcEEbj(ptr noundef nonnull align 8 dereferenceable(624) %this, ptr noundef nonnull align 8 dereferenceable(8) %name, ptr %value.coerce0, ptr %value.coerce1, i1 noundef zeroext %isStaticName, i32 noundef %nameIndex) #4 align 2 {
entry:
  %value = alloca %"class.folly::Range", align 8
  %this.addr = alloca ptr, align 8
  %name.addr = alloca ptr, align 8
  %isStaticName.addr = alloca i8, align 1
  %nameIndex.addr = alloca i32, align 4
  %encoded = alloca i32, align 4
  %agg.tmp = alloca %"class.folly::Range", align 8
  %0 = getelementptr inbounds { ptr, ptr }, ptr %value, i32 0, i32 0
  store ptr %value.coerce0, ptr %0, align 8
  %1 = getelementptr inbounds { ptr, ptr }, ptr %value, i32 0, i32 1
  store ptr %value.coerce1, ptr %1, align 8
  store ptr %this, ptr %this.addr, align 8
  store ptr %name, ptr %name.addr, align 8
  %frombool = zext i1 %isStaticName to i8
  store i8 %frombool, ptr %isStaticName.addr, align 1
  store i32 %nameIndex, ptr %nameIndex.addr, align 4
  %this1 = load ptr, ptr %this.addr, align 8
  %controlBuffer_ = getelementptr inbounds %"class.proxygen::QPACKEncoder", ptr %this1, i32 0, i32 4
  %2 = load ptr, ptr %name.addr, align 8
  call void @llvm.memcpy.p0.p0.i64(ptr align 8 %agg.tmp, ptr align 8 %value, i64 16, i1 false)
  %3 = load i8, ptr %isStaticName.addr, align 1
  %tobool = trunc i8 %3 to i1
  %4 = load i32, ptr %nameIndex.addr, align 4
  %5 = getelementptr inbounds { ptr, ptr }, ptr %agg.tmp, i32 0, i32 0
  %6 = load ptr, ptr %5, align 8
  %7 = getelementptr inbounds { ptr, ptr }, ptr %agg.tmp, i32 0, i32 1
  %8 = load ptr, ptr %7, align 8
  %call = call noundef i32 @_ZN8proxygen12QPACKEncoder20encodeLiteralQHelperERNS_17HPACKEncodeBufferERKNS_15HPACKHeaderNameEN5folly5RangeIPKcEEbjhRKNS_5HPACK11InstructionESE_(ptr noundef nonnull align 8 dereferenceable(624) %this1, ptr noundef nonnull align 8 dereferenceable(132) %controlBuffer_, ptr noundef nonnull align 8 dereferenceable(8) %2, ptr %6, ptr %8, i1 noundef zeroext %tobool, i32 noundef %4, i8 noundef zeroext 64, ptr noundef nonnull align 1 dereferenceable(2) @_ZN8proxygen5HPACKL17Q_INSERT_NAME_REFE, ptr noundef nonnull align 1 dereferenceable(2) @_ZN8proxygen5HPACKL20Q_INSERT_NO_NAME_REFE)
  store i32 %call, ptr %encoded, align 4
  %9 = load i32, ptr %encoded, align 4
  %conv = zext i32 %9 to i64
  %maxEncoderStreamBytes_ = getelementptr inbounds %"class.proxygen::QPACKEncoder", ptr %this1, i32 0, i32 11
  %10 = load i64, ptr %maxEncoderStreamBytes_, align 8
  %sub = sub nsw i64 %10, %conv
  store i64 %sub, ptr %maxEncoderStreamBytes_, align 8
  ret void
}