; Function Attrs: mustprogress uwtable
define void @_ZN8proxygen12QPACKEncoder13encodeInsertQERKNS_15HPACKHeaderNameEN5folly5RangeIPKcEEbj(ptr noundef nonnull align 8 dereferenceable(624) %this, ptr nocapture noundef nonnull readonly align 8 dereferenceable(8) %name, ptr %value.coerce0, ptr %value.coerce1, i1 noundef zeroext %isStaticName, i32 noundef %nameIndex) local_unnamed_addr #3 align 2 {
entry:
  %controlBuffer_ = getelementptr inbounds i8, ptr %this, i64 272
  %call = tail call noundef i32 @_ZN8proxygen12QPACKEncoder20encodeLiteralQHelperERNS_17HPACKEncodeBufferERKNS_15HPACKHeaderNameEN5folly5RangeIPKcEEbjhRKNS_5HPACK11InstructionESE_(ptr noundef nonnull align 8 dereferenceable(624) %this, ptr noundef nonnull align 8 dereferenceable(132) %controlBuffer_, ptr noundef nonnull align 8 dereferenceable(8) %name, ptr %value.coerce0, ptr %value.coerce1, i1 noundef zeroext %isStaticName, i32 noundef %nameIndex, i8 noundef zeroext 64, ptr noundef nonnull align 1 dereferenceable(2) @_ZN8proxygen5HPACKL17Q_INSERT_NAME_REFE, ptr noundef nonnull align 1 dereferenceable(2) @_ZN8proxygen5HPACKL20Q_INSERT_NO_NAME_REFE)
  %conv = zext i32 %call to i64
  %maxEncoderStreamBytes_ = getelementptr inbounds i8, ptr %this, i64 536
  %0 = load i64, ptr %maxEncoderStreamBytes_, align 8
  %sub = sub nsw i64 %0, %conv
  store i64 %sub, ptr %maxEncoderStreamBytes_, align 8
  ret void
}